#include <math.h>
#include <stdio.h>
#include <stdlib.h>
#include <string.h>
#define LEN 100
#define ASCII 100
#define MAX_N 100
#define MAX_N 100
#define L 100
#define MAX 100
#define ASC 100
#define null 0
#define Len 100
#define M 100
#define SUM 100
#define NUMBER 100
#define SIZE 100
#define N 100
#define Max 100
#define X 100
#define Y 100
#define A 100
#define MAXN 100
#define MAXSIZE 100
void main()
{
	int n,i,j,max=0;
	scanf("%d",&n);
	int num[1000];
	int sum[26];
	for(i=0;i<26;i++){
		sum[i]=0;
	}
	char a[1000][27];
	for(i=0;i<n;i++){
		scanf("%d %s",&num[i],a[i]);
	}
	for(i=0;i<n;i++){
		for(j=0;a[i][j]!='\0';j++){
			sum[a[i][j]-'A']=sum[a[i][j]-'A']+1;
		}
	}
	for(i=1;i<26;i++){
		if(sum[i]>sum[max]){
			max=i;
		}
	}

	printf("%c\n",max+'A');
	printf("%d\n",sum[max]);
	for(i=0;i<n;i++){
		for(j=0;a[i][j]!='\0';j++){
			if(a[i][j]==max+'A'){
				printf("%d\n",num[i]);
				break;
			}
		}
	}
}

		
		
		
		
		
		
		
		
		
		
		
		
	



