; ModuleID = '2/82.c'
source_filename = "2/82.c"
target datalayout = "e-m:e-p270:32:32-p271:32:32-p272:64:64-i64:64-f80:128-n8:16:32:64-S128"
target triple = "x86_64-pc-linux-gnu"

@.str = private unnamed_addr constant [3 x i8] c"%d\00", align 1
@.str.1 = private unnamed_addr constant [6 x i8] c"%d %s\00", align 1
@.str.2 = private unnamed_addr constant [4 x i8] c"%c\0A\00", align 1
@.str.3 = private unnamed_addr constant [4 x i8] c"%d\0A\00", align 1

; Function Attrs: noinline nounwind uwtable
define dso_local void @main() #0 {
  %1 = alloca i32, align 4
  %2 = alloca i32, align 4
  %3 = alloca i32, align 4
  %4 = alloca i32, align 4
  %5 = alloca [1000 x i32], align 16
  %6 = alloca [26 x i32], align 16
  %7 = alloca [1000 x [27 x i8]], align 16
  store i32 0, i32* %4, align 4
  %8 = call i32 (i8*, ...) @__isoc99_scanf(i8* getelementptr inbounds ([3 x i8], [3 x i8]* @.str, i64 0, i64 0), i32* %1)
  store i32 0, i32* %2, align 4
  br label %9

9:                                                ; preds = %16, %0
  %10 = load i32, i32* %2, align 4
  %11 = icmp slt i32 %10, 26
  br i1 %11, label %12, label %19

12:                                               ; preds = %9
  %13 = load i32, i32* %2, align 4
  %14 = sext i32 %13 to i64
  %15 = getelementptr inbounds [26 x i32], [26 x i32]* %6, i64 0, i64 %14
  store i32 0, i32* %15, align 4
  br label %16

16:                                               ; preds = %12
  %17 = load i32, i32* %2, align 4
  %18 = add nsw i32 %17, 1
  store i32 %18, i32* %2, align 4
  br label %9

19:                                               ; preds = %9
  store i32 0, i32* %2, align 4
  br label %20

20:                                               ; preds = %33, %19
  %21 = load i32, i32* %2, align 4
  %22 = load i32, i32* %1, align 4
  %23 = icmp slt i32 %21, %22
  br i1 %23, label %24, label %36

24:                                               ; preds = %20
  %25 = load i32, i32* %2, align 4
  %26 = sext i32 %25 to i64
  %27 = getelementptr inbounds [1000 x i32], [1000 x i32]* %5, i64 0, i64 %26
  %28 = load i32, i32* %2, align 4
  %29 = sext i32 %28 to i64
  %30 = getelementptr inbounds [1000 x [27 x i8]], [1000 x [27 x i8]]* %7, i64 0, i64 %29
  %31 = getelementptr inbounds [27 x i8], [27 x i8]* %30, i64 0, i64 0
  %32 = call i32 (i8*, ...) @__isoc99_scanf(i8* getelementptr inbounds ([6 x i8], [6 x i8]* @.str.1, i64 0, i64 0), i32* %27, i8* %31)
  br label %33

33:                                               ; preds = %24
  %34 = load i32, i32* %2, align 4
  %35 = add nsw i32 %34, 1
  store i32 %35, i32* %2, align 4
  br label %20

36:                                               ; preds = %20
  store i32 0, i32* %2, align 4
  br label %37

37:                                               ; preds = %81, %36
  %38 = load i32, i32* %2, align 4
  %39 = load i32, i32* %1, align 4
  %40 = icmp slt i32 %38, %39
  br i1 %40, label %41, label %84

41:                                               ; preds = %37
  store i32 0, i32* %3, align 4
  br label %42

42:                                               ; preds = %77, %41
  %43 = load i32, i32* %2, align 4
  %44 = sext i32 %43 to i64
  %45 = getelementptr inbounds [1000 x [27 x i8]], [1000 x [27 x i8]]* %7, i64 0, i64 %44
  %46 = load i32, i32* %3, align 4
  %47 = sext i32 %46 to i64
  %48 = getelementptr inbounds [27 x i8], [27 x i8]* %45, i64 0, i64 %47
  %49 = load i8, i8* %48, align 1
  %50 = sext i8 %49 to i32
  %51 = icmp ne i32 %50, 0
  br i1 %51, label %52, label %80

52:                                               ; preds = %42
  %53 = load i32, i32* %2, align 4
  %54 = sext i32 %53 to i64
  %55 = getelementptr inbounds [1000 x [27 x i8]], [1000 x [27 x i8]]* %7, i64 0, i64 %54
  %56 = load i32, i32* %3, align 4
  %57 = sext i32 %56 to i64
  %58 = getelementptr inbounds [27 x i8], [27 x i8]* %55, i64 0, i64 %57
  %59 = load i8, i8* %58, align 1
  %60 = sext i8 %59 to i32
  %61 = sub nsw i32 %60, 65
  %62 = sext i32 %61 to i64
  %63 = getelementptr inbounds [26 x i32], [26 x i32]* %6, i64 0, i64 %62
  %64 = load i32, i32* %63, align 4
  %65 = add nsw i32 %64, 1
  %66 = load i32, i32* %2, align 4
  %67 = sext i32 %66 to i64
  %68 = getelementptr inbounds [1000 x [27 x i8]], [1000 x [27 x i8]]* %7, i64 0, i64 %67
  %69 = load i32, i32* %3, align 4
  %70 = sext i32 %69 to i64
  %71 = getelementptr inbounds [27 x i8], [27 x i8]* %68, i64 0, i64 %70
  %72 = load i8, i8* %71, align 1
  %73 = sext i8 %72 to i32
  %74 = sub nsw i32 %73, 65
  %75 = sext i32 %74 to i64
  %76 = getelementptr inbounds [26 x i32], [26 x i32]* %6, i64 0, i64 %75
  store i32 %65, i32* %76, align 4
  br label %77

77:                                               ; preds = %52
  %78 = load i32, i32* %3, align 4
  %79 = add nsw i32 %78, 1
  store i32 %79, i32* %3, align 4
  br label %42

80:                                               ; preds = %42
  br label %81

81:                                               ; preds = %80
  %82 = load i32, i32* %2, align 4
  %83 = add nsw i32 %82, 1
  store i32 %83, i32* %2, align 4
  br label %37

84:                                               ; preds = %37
  store i32 1, i32* %2, align 4
  br label %85

85:                                               ; preds = %101, %84
  %86 = load i32, i32* %2, align 4
  %87 = icmp slt i32 %86, 26
  br i1 %87, label %88, label %104

88:                                               ; preds = %85
  %89 = load i32, i32* %2, align 4
  %90 = sext i32 %89 to i64
  %91 = getelementptr inbounds [26 x i32], [26 x i32]* %6, i64 0, i64 %90
  %92 = load i32, i32* %91, align 4
  %93 = load i32, i32* %4, align 4
  %94 = sext i32 %93 to i64
  %95 = getelementptr inbounds [26 x i32], [26 x i32]* %6, i64 0, i64 %94
  %96 = load i32, i32* %95, align 4
  %97 = icmp sgt i32 %92, %96
  br i1 %97, label %98, label %100

98:                                               ; preds = %88
  %99 = load i32, i32* %2, align 4
  store i32 %99, i32* %4, align 4
  br label %100

100:                                              ; preds = %98, %88
  br label %101

101:                                              ; preds = %100
  %102 = load i32, i32* %2, align 4
  %103 = add nsw i32 %102, 1
  store i32 %103, i32* %2, align 4
  br label %85

104:                                              ; preds = %85
  %105 = load i32, i32* %4, align 4
  %106 = add nsw i32 %105, 65
  %107 = call i32 (i8*, ...) @printf(i8* getelementptr inbounds ([4 x i8], [4 x i8]* @.str.2, i64 0, i64 0), i32 %106)
  %108 = load i32, i32* %4, align 4
  %109 = sext i32 %108 to i64
  %110 = getelementptr inbounds [26 x i32], [26 x i32]* %6, i64 0, i64 %109
  %111 = load i32, i32* %110, align 4
  %112 = call i32 (i8*, ...) @printf(i8* getelementptr inbounds ([4 x i8], [4 x i8]* @.str.3, i64 0, i64 0), i32 %111)
  store i32 0, i32* %2, align 4
  br label %113

113:                                              ; preds = %151, %104
  %114 = load i32, i32* %2, align 4
  %115 = load i32, i32* %1, align 4
  %116 = icmp slt i32 %114, %115
  br i1 %116, label %117, label %154

117:                                              ; preds = %113
  store i32 0, i32* %3, align 4
  br label %118

118:                                              ; preds = %147, %117
  %119 = load i32, i32* %2, align 4
  %120 = sext i32 %119 to i64
  %121 = getelementptr inbounds [1000 x [27 x i8]], [1000 x [27 x i8]]* %7, i64 0, i64 %120
  %122 = load i32, i32* %3, align 4
  %123 = sext i32 %122 to i64
  %124 = getelementptr inbounds [27 x i8], [27 x i8]* %121, i64 0, i64 %123
  %125 = load i8, i8* %124, align 1
  %126 = sext i8 %125 to i32
  %127 = icmp ne i32 %126, 0
  br i1 %127, label %128, label %150

128:                                              ; preds = %118
  %129 = load i32, i32* %2, align 4
  %130 = sext i32 %129 to i64
  %131 = getelementptr inbounds [1000 x [27 x i8]], [1000 x [27 x i8]]* %7, i64 0, i64 %130
  %132 = load i32, i32* %3, align 4
  %133 = sext i32 %132 to i64
  %134 = getelementptr inbounds [27 x i8], [27 x i8]* %131, i64 0, i64 %133
  %135 = load i8, i8* %134, align 1
  %136 = sext i8 %135 to i32
  %137 = load i32, i32* %4, align 4
  %138 = add nsw i32 %137, 65
  %139 = icmp eq i32 %136, %138
  br i1 %139, label %140, label %146

140:                                              ; preds = %128
  %141 = load i32, i32* %2, align 4
  %142 = sext i32 %141 to i64
  %143 = getelementptr inbounds [1000 x i32], [1000 x i32]* %5, i64 0, i64 %142
  %144 = load i32, i32* %143, align 4
  %145 = call i32 (i8*, ...) @printf(i8* getelementptr inbounds ([4 x i8], [4 x i8]* @.str.3, i64 0, i64 0), i32 %144)
  br label %150

146:                                              ; preds = %128
  br label %147

147:                                              ; preds = %146
  %148 = load i32, i32* %3, align 4
  %149 = add nsw i32 %148, 1
  store i32 %149, i32* %3, align 4
  br label %118

150:                                              ; preds = %140, %118
  br label %151

151:                                              ; preds = %150
  %152 = load i32, i32* %2, align 4
  %153 = add nsw i32 %152, 1
  store i32 %153, i32* %2, align 4
  br label %113

154:                                              ; preds = %113
  ret void
}

declare dso_local i32 @__isoc99_scanf(i8*, ...) #1

declare dso_local i32 @printf(i8*, ...) #1


!llvm.module.flags = !{!0}
!llvm.ident = !{!1}

!0 = !{i32 1, !"wchar_size", i32 4}
!1 = !{!"clang version 10.0.0-4ubuntu1 "}
